target datalayout = "e-m:e-p270:32:32-p271:32:32-p272:64:64-i64:64-i128:128-f80:128-n8:16:32:64-S128"
target triple = "x86_64-pc-linux-gnu"

%struct.ForEachState = type { ptr, i32 }
%struct.List = type { i32, i32, i32, ptr, [0 x %union.ListCell] }
%union.ListCell = type { ptr }
%struct.PublicationObjSpec = type { i32, i32, ptr, ptr, i32 }

@.str.1 = private unnamed_addr constant [18 x i8] c"publicationcmds.c\00", align 1
@.str.24 = private unnamed_addr constant [47 x i8] c"no schema has been selected for CURRENT_SCHEMA\00", align 1
@__func__.ObjectsInPublicationToOids = private unnamed_addr constant [27 x i8] c"ObjectsInPublicationToOids\00", align 1
@.str.25 = private unnamed_addr constant [35 x i8] c"invalid publication object type %d\00", align 1

; Function Attrs: inlinehint nounwind uwtable
define internal ptr @list_nth_cell(ptr noundef %0, i32 noundef %1) #3 {
  %3 = alloca ptr, align 8
  %4 = alloca i32, align 4
  store ptr %0, ptr %3, align 8
  store i32 %1, ptr %4, align 4
  %5 = load ptr, ptr %3, align 8
  %6 = getelementptr inbounds nuw %struct.List, ptr %5, i32 0, i32 3
  %7 = load ptr, ptr %6, align 8
  %8 = load i32, ptr %4, align 4
  %9 = sext i32 %8 to i64
  %10 = getelementptr inbounds %union.ListCell, ptr %7, i64 %9
  ret ptr %10
}

; Function Attrs: nounwind uwtable
define internal void @ObjectsInPublicationToOids(ptr noundef %0, ptr noundef %1, ptr noundef %2, ptr noundef %3) #0 {
  %5 = alloca ptr, align 8
  %6 = alloca ptr, align 8
  %7 = alloca ptr, align 8
  %8 = alloca ptr, align 8
  %9 = alloca ptr, align 8
  %10 = alloca ptr, align 8
  %11 = alloca i32, align 4
  %12 = alloca %struct.ForEachState, align 8
  %13 = alloca i32, align 4
  %14 = alloca ptr, align 8
  store ptr %0, ptr %5, align 8
  store ptr %1, ptr %6, align 8
  store ptr %2, ptr %7, align 8
  store ptr %3, ptr %8, align 8
  call void @llvm.lifetime.start.p0(i64 8, ptr %9) #10
  call void @llvm.lifetime.start.p0(i64 8, ptr %10) #10
  %15 = load ptr, ptr %5, align 8
  %16 = icmp ne ptr %15, null
  br i1 %16, label %18, label %17

17:                                               ; preds = %4
  store i32 1, ptr %11, align 4
  br label %119

18:                                               ; preds = %4
  call void @llvm.lifetime.start.p0(i64 16, ptr %12) #10
  %19 = getelementptr inbounds nuw %struct.ForEachState, ptr %12, i32 0, i32 0
  %20 = load ptr, ptr %5, align 8
  store ptr %20, ptr %19, align 8
  %21 = getelementptr inbounds nuw %struct.ForEachState, ptr %12, i32 0, i32 1
  store i32 0, ptr %21, align 8
  %22 = getelementptr i8, ptr %12, i64 12
  call void @llvm.memset.p0.i64(ptr align 4 %22, i8 0, i64 4, i1 false)
  br label %23

23:                                               ; preds = %114, %18
  %24 = getelementptr inbounds nuw %struct.ForEachState, ptr %12, i32 0, i32 0
  %25 = load ptr, ptr %24, align 8
  %26 = icmp ne ptr %25, null
  br i1 %26, label %27, label %44

27:                                               ; preds = %23
  %28 = getelementptr inbounds nuw %struct.ForEachState, ptr %12, i32 0, i32 1
  %29 = load i32, ptr %28, align 8
  %30 = getelementptr inbounds nuw %struct.ForEachState, ptr %12, i32 0, i32 0
  %31 = load ptr, ptr %30, align 8
  %32 = getelementptr inbounds nuw %struct.List, ptr %31, i32 0, i32 1
  %33 = load i32, ptr %32, align 4
  %34 = icmp slt i32 %29, %33
  br i1 %34, label %35, label %44

35:                                               ; preds = %27
  %36 = getelementptr inbounds nuw %struct.ForEachState, ptr %12, i32 0, i32 0
  %37 = load ptr, ptr %36, align 8
  %38 = getelementptr inbounds nuw %struct.List, ptr %37, i32 0, i32 3
  %39 = load ptr, ptr %38, align 8
  %40 = getelementptr inbounds nuw %struct.ForEachState, ptr %12, i32 0, i32 1
  %41 = load i32, ptr %40, align 8
  %42 = sext i32 %41 to i64
  %43 = getelementptr inbounds %union.ListCell, ptr %39, i64 %42
  store ptr %43, ptr %9, align 8
  br label %45

44:                                               ; preds = %27, %23
  store ptr null, ptr %9, align 8
  br label %45

45:                                               ; preds = %44, %35
  %46 = phi i32 [ 1, %35 ], [ 0, %44 ]
  %47 = icmp ne i32 %46, 0
  br i1 %47, label %49, label %48

48:                                               ; preds = %45
  store i32 2, ptr %11, align 4
  call void @llvm.lifetime.end.p0(i64 16, ptr %12) #10
  br label %118

49:                                               ; preds = %45
  call void @llvm.lifetime.start.p0(i64 4, ptr %13) #10
  call void @llvm.lifetime.start.p0(i64 8, ptr %14) #10
  %50 = load ptr, ptr %9, align 8
  %51 = load ptr, ptr %50, align 8
  store ptr %51, ptr %10, align 8
  %52 = load ptr, ptr %10, align 8
  %53 = getelementptr inbounds nuw %struct.PublicationObjSpec, ptr %52, i32 0, i32 1
  %54 = load i32, ptr %53, align 4
  switch i32 %54, label %99 [
    i32 0, label %55
    i32 1, label %63
    i32 2, label %73
  ]

55:                                               ; preds = %49
  %56 = load ptr, ptr %7, align 8
  %57 = load ptr, ptr %56, align 8
  %58 = load ptr, ptr %10, align 8
  %59 = getelementptr inbounds nuw %struct.PublicationObjSpec, ptr %58, i32 0, i32 3
  %60 = load ptr, ptr %59, align 8
  %61 = call ptr @lappend(ptr noundef %57, ptr noundef %60)
  %62 = load ptr, ptr %7, align 8
  store ptr %61, ptr %62, align 8
  br label %113

63:                                               ; preds = %49
  %64 = load ptr, ptr %10, align 8
  %65 = getelementptr inbounds nuw %struct.PublicationObjSpec, ptr %64, i32 0, i32 2
  %66 = load ptr, ptr %65, align 8
  %67 = call i32 @get_namespace_oid(ptr noundef %66, i1 noundef zeroext false)
  store i32 %67, ptr %13, align 4
  %68 = load ptr, ptr %8, align 8
  %69 = load ptr, ptr %68, align 8
  %70 = load i32, ptr %13, align 4
  %71 = call ptr @list_append_unique_oid(ptr noundef %69, i32 noundef %70)
  %72 = load ptr, ptr %8, align 8
  store ptr %71, ptr %72, align 8
  br label %113

73:                                               ; preds = %49
  %74 = call ptr @fetch_search_path(i1 noundef zeroext false)
  store ptr %74, ptr %14, align 8
  %75 = load ptr, ptr %14, align 8
  %76 = icmp eq ptr %75, null
  br i1 %76, label %77, label %89

77:                                               ; preds = %73
  br label %78

78:                                               ; preds = %77
  br i1 true, label %79, label %81

79:                                               ; preds = %78
  %80 = call zeroext i1 @errstart_cold(i32 noundef 21, ptr noundef null) #11
  br i1 %80, label %83, label %86

81:                                               ; preds = %78
  %82 = call zeroext i1 @errstart(i32 noundef 21, ptr noundef null)
  br i1 %82, label %83, label %86

83:                                               ; preds = %81, %79
  %84 = call i32 @errcode(i32 noundef 1411)
  %85 = call i32 (ptr, ...) @errmsg(ptr noundef @.str.24)
  call void @errfinish(ptr noundef @.str.1, i32 noundef 211, ptr noundef @__func__.ObjectsInPublicationToOids)
  br label %86

86:                                               ; preds = %83, %81, %79
  unreachable

87:                                               ; No predecessors!
  br label %88

88:                                               ; preds = %87
  br label %89

89:                                               ; preds = %88, %73
  %90 = load ptr, ptr %14, align 8
  %91 = call ptr @list_nth_cell(ptr noundef %90, i32 noundef 0)
  %92 = load i32, ptr %91, align 8
  store i32 %92, ptr %13, align 4
  %93 = load ptr, ptr %14, align 8
  call void @list_free(ptr noundef %93)
  %94 = load ptr, ptr %8, align 8
  %95 = load ptr, ptr %94, align 8
  %96 = load i32, ptr %13, align 4
  %97 = call ptr @list_append_unique_oid(ptr noundef %95, i32 noundef %96)
  %98 = load ptr, ptr %8, align 8
  store ptr %97, ptr %98, align 8
  br label %113

99:                                               ; preds = %49
  br label %100

100:                                              ; preds = %99
  br i1 true, label %101, label %103

101:                                              ; preds = %100
  %102 = call zeroext i1 @errstart_cold(i32 noundef 21, ptr noundef null) #11
  br i1 %102, label %105, label %110

103:                                              ; preds = %100
  %104 = call zeroext i1 @errstart(i32 noundef 21, ptr noundef null)
  br i1 %104, label %105, label %110

105:                                              ; preds = %103, %101
  %106 = load ptr, ptr %10, align 8
  %107 = getelementptr inbounds nuw %struct.PublicationObjSpec, ptr %106, i32 0, i32 1
  %108 = load i32, ptr %107, align 4
  %109 = call i32 (ptr, ...) @errmsg_internal(ptr noundef @.str.25, i32 noundef %108)
  call void @errfinish(ptr noundef @.str.1, i32 noundef 221, ptr noundef @__func__.ObjectsInPublicationToOids)
  br label %110

110:                                              ; preds = %105, %103, %101
  unreachable

111:                                              ; No predecessors!
  br label %112

112:                                              ; preds = %111
  br label %113

113:                                              ; preds = %112, %89, %63, %55
  call void @llvm.lifetime.end.p0(i64 8, ptr %14) #10
  call void @llvm.lifetime.end.p0(i64 4, ptr %13) #10
  br label %114

114:                                              ; preds = %113
  %115 = getelementptr inbounds nuw %struct.ForEachState, ptr %12, i32 0, i32 1
  %116 = load i32, ptr %115, align 8
  %117 = add i32 %116, 1
  store i32 %117, ptr %115, align 8
  br label %23, !llvm.loop !10

118:                                              ; preds = %48
  store i32 0, ptr %11, align 4
  br label %119

119:                                              ; preds = %118, %17
  call void @llvm.lifetime.end.p0(i64 8, ptr %10) #10
  call void @llvm.lifetime.end.p0(i64 8, ptr %9) #10
  %120 = load i32, ptr %11, align 4
  switch i32 %120, label %122 [
    i32 0, label %121
    i32 1, label %121
  ]

121:                                              ; preds = %119, %119
  ret void

122:                                              ; preds = %119
  unreachable
}