; Function Attrs: nounwind uwtable
define internal fastcc void @ObjectsInPublicationToOids(ptr noundef readonly captures(address_is_null) %0, ptr noundef nonnull captures(none) %1, ptr noundef nonnull captures(none) %2) unnamed_addr #0 {
  %.not = icmp eq ptr %0, null
  br i1 %.not, label %.loopexit, label %.preheader

.preheader:                                       ; preds = %3
  %4 = getelementptr inbounds nuw i8, ptr %0, i64 4
  %5 = load i32, ptr %4, align 4
  %.not245 = icmp sgt i32 %5, 0
  br i1 %.not245, label %.lr.ph, label %.loopexit

.lr.ph:                                           ; preds = %.preheader
  %6 = getelementptr inbounds nuw i8, ptr %0, i64 16
  br label %7

7:                                                ; preds = %.lr.ph, %41
  %indvars.iv = phi i64 [ 0, %.lr.ph ], [ %indvars.iv.next, %41 ]
  %8 = load ptr, ptr %6, align 8
  %9 = getelementptr inbounds nuw %union.ListCell, ptr %8, i64 %indvars.iv
  %10 = load ptr, ptr %9, align 8
  %11 = getelementptr inbounds nuw i8, ptr %10, i64 4
  %12 = load i32, ptr %11, align 4
  switch i32 %12, label %36 [
    i32 0, label %13
    i32 1, label %18
    i32 2, label %24
  ]

13:                                               ; preds = %7
  %14 = load ptr, ptr %1, align 8
  %15 = getelementptr inbounds nuw i8, ptr %10, i64 16
  %16 = load ptr, ptr %15, align 8
  %17 = tail call ptr @lappend(ptr noundef %14, ptr noundef %16) #8
  store ptr %17, ptr %1, align 8
  br label %41

18:                                               ; preds = %7
  %19 = getelementptr inbounds nuw i8, ptr %10, i64 8
  %20 = load ptr, ptr %19, align 8
  %21 = tail call i32 @get_namespace_oid(ptr noundef %20, i1 noundef zeroext false) #8
  %22 = load ptr, ptr %2, align 8
  %23 = tail call ptr @list_append_unique_oid(ptr noundef %22, i32 noundef %21) #8
  store ptr %23, ptr %2, align 8
  br label %41

24:                                               ; preds = %7
  %25 = tail call ptr @fetch_search_path(i1 noundef zeroext false) #8
  %26 = icmp eq ptr %25, null
  br i1 %26, label %27, label %31

27:                                               ; preds = %24
  %28 = tail call zeroext i1 @errstart_cold(i32 noundef 21, ptr noundef null) #9
  tail call void @llvm.assume(i1 %28)
  %29 = tail call i32 @errcode(i32 noundef 1411) #8
  %30 = tail call i32 (ptr, ...) @errmsg(ptr noundef nonnull @.str.24) #8
  tail call void @errfinish(ptr noundef nonnull @.str.1, i32 noundef 211, ptr noundef nonnull @__func__.ObjectsInPublicationToOids) #8
  unreachable

31:                                               ; preds = %24
  %32 = getelementptr i8, ptr %25, i64 16
  %.val = load ptr, ptr %32, align 8
  %33 = load i32, ptr %.val, align 8
  tail call void @list_free(ptr noundef nonnull %25) #8
  %34 = load ptr, ptr %2, align 8
  %35 = tail call ptr @list_append_unique_oid(ptr noundef %34, i32 noundef %33) #8
  store ptr %35, ptr %2, align 8
  br label %41

36:                                               ; preds = %7
  %37 = getelementptr inbounds nuw i8, ptr %10, i64 4
  %38 = tail call zeroext i1 @errstart_cold(i32 noundef 21, ptr noundef null) #9
  tail call void @llvm.assume(i1 %38)
  %39 = load i32, ptr %37, align 4
  %40 = tail call i32 (ptr, ...) @errmsg_internal(ptr noundef nonnull @.str.25, i32 noundef %39) #8
  tail call void @errfinish(ptr noundef nonnull @.str.1, i32 noundef 221, ptr noundef nonnull @__func__.ObjectsInPublicationToOids) #8
  unreachable

41:                                               ; preds = %31, %18, %13
  %indvars.iv.next = add nuw nsw i64 %indvars.iv, 1
  %42 = load i32, ptr %4, align 4
  %43 = sext i32 %42 to i64
  %.not24 = icmp slt i64 %indvars.iv.next, %43
  br i1 %.not24, label %7, label %.loopexit, !llvm.loop !8

.loopexit:                                        ; preds = %41, %.preheader, %3
  ret void
}